target datalayout = "e-m:e-p270:32:32-p271:32:32-p272:64:64-i64:64-i128:128-f80:128-n8:16:32:64-S128"
target triple = "x86_64-unknown-linux-gnu"

%"class.datalog::entry_storage" = type { i32, i32, i64, %class.svector, %class.hashtable, i64 }
%class.svector = type { %class.vector }
%class.vector = type { ptr }
%class.hashtable = type { %class.core_hashtable.base, [4 x i8] }
%class.core_hashtable.base = type <{ %"class.datalog::entry_storage::offset_hash_proc.base", [4 x i8], %"class.datalog::entry_storage::offset_eq_proc.base", [4 x i8], ptr, i32, i32, i32 }>
%"class.datalog::entry_storage::offset_hash_proc.base" = type <{ ptr, i32 }>
%"class.datalog::entry_storage::offset_eq_proc.base" = type <{ ptr, i32 }>
%"class.datalog::sparse_table::column_layout" = type <{ %class.svector.0, i32, i32, i32, [4 x i8] }>
%class.svector.0 = type { %class.vector.1 }
%class.vector.1 = type { ptr }
%"class.datalog::table_signature" = type <{ %"class.datalog::tr_infrastructure<datalog::table_traits>::signature_base", i32, [4 x i8] }>
%"class.datalog::tr_infrastructure<datalog::table_traits>::signature_base" = type { %class.svector.2 }
%class.svector.2 = type { %class.vector.3 }
%class.vector.3 = type { ptr }
%"class.datalog::sparse_table" = type { %"class.datalog::table_base.base", [4 x i8], %"class.datalog::sparse_table::column_layout", i32, %"class.datalog::entry_storage", %class.map }
%"class.datalog::table_base.base" = type { %"class.datalog::tr_infrastructure<datalog::table_traits>::base_ancestor.base" }
%"class.datalog::tr_infrastructure<datalog::table_traits>::base_ancestor.base" = type <{ ptr, ptr, %"class.datalog::table_signature", i32 }>
%class.map = type { %class.table2map }
%class.table2map = type { %class.core_hashtable.4 }
%class.core_hashtable.4 = type <{ ptr, i32, i32, i32, [4 x i8] }>
%struct._key_data = type { %class.svector.10, ptr }
%class.svector.10 = type { %class.vector.11 }
%class.vector.11 = type { ptr }
%"class.datalog::verbose_action" = type { i32, ptr }
%class.default_hash_entry = type { i32, i32, %struct._key_data }

@.str = private unnamed_addr constant [16 x i8] c"get_key_indexer\00", align 1

; Function Attrs: mustprogress uwtable
define linkonce_odr hidden noundef nonnull align 8 dereferenceable(8) ptr @_ZN6vectorIjLb0EjE9push_backERKj(ptr noundef nonnull align 8 dereferenceable(8) %this, ptr noundef nonnull align 4 dereferenceable(4) %elem) #4 comdat align 2 {
entry:
  %this.addr = alloca ptr, align 8
  %elem.addr = alloca ptr, align 8
  store ptr %this, ptr %this.addr, align 8
  store ptr %elem, ptr %elem.addr, align 8
  %this1 = load ptr, ptr %this.addr, align 8
  %m_data = getelementptr inbounds %class.vector.11, ptr %this1, i32 0, i32 0
  %0 = load ptr, ptr %m_data, align 8
  %cmp = icmp eq ptr %0, null
  br i1 %cmp, label %if.then, label %lor.lhs.false

lor.lhs.false:                                    ; preds = %entry
  %m_data2 = getelementptr inbounds %class.vector.11, ptr %this1, i32 0, i32 0
  %1 = load ptr, ptr %m_data2, align 8
  %arrayidx = getelementptr inbounds i32, ptr %1, i64 -1
  %2 = load i32, ptr %arrayidx, align 4
  %m_data3 = getelementptr inbounds %class.vector.11, ptr %this1, i32 0, i32 0
  %3 = load ptr, ptr %m_data3, align 8
  %arrayidx4 = getelementptr inbounds i32, ptr %3, i64 -2
  %4 = load i32, ptr %arrayidx4, align 4
  %cmp5 = icmp eq i32 %2, %4
  br i1 %cmp5, label %if.then, label %if.end

if.then:                                          ; preds = %lor.lhs.false, %entry
  call void @_ZN6vectorIjLb0EjE13expand_vectorEv(ptr noundef nonnull align 8 dereferenceable(8) %this1)
  br label %if.end

if.end:                                           ; preds = %if.then, %lor.lhs.false
  %m_data6 = getelementptr inbounds %class.vector.11, ptr %this1, i32 0, i32 0
  %5 = load ptr, ptr %m_data6, align 8
  %m_data7 = getelementptr inbounds %class.vector.11, ptr %this1, i32 0, i32 0
  %6 = load ptr, ptr %m_data7, align 8
  %arrayidx8 = getelementptr inbounds i32, ptr %6, i64 -1
  %7 = load i32, ptr %arrayidx8, align 4
  %idx.ext = zext i32 %7 to i64
  %add.ptr = getelementptr inbounds i32, ptr %5, i64 %idx.ext
  %8 = load ptr, ptr %elem.addr, align 8
  %9 = load i32, ptr %8, align 4
  store i32 %9, ptr %add.ptr, align 4
  %m_data9 = getelementptr inbounds %class.vector.11, ptr %this1, i32 0, i32 0
  %10 = load ptr, ptr %m_data9, align 8
  %arrayidx10 = getelementptr inbounds i32, ptr %10, i64 -1
  %11 = load i32, ptr %arrayidx10, align 4
  %inc = add i32 %11, 1
  store i32 %inc, ptr %arrayidx10, align 4
  ret ptr %this1
}

; Function Attrs: mustprogress nounwind uwtable
define linkonce_odr hidden void @_ZN6vectorIjLb0EjEC2Ev(ptr noundef nonnull align 8 dereferenceable(8) %this) unnamed_addr #5 comdat align 2 {
entry:
  %this.addr = alloca ptr, align 8
  store ptr %this, ptr %this.addr, align 8
  %this1 = load ptr, ptr %this.addr, align 8
  %m_data = getelementptr inbounds %class.vector.11, ptr %this1, i32 0, i32 0
  store ptr null, ptr %m_data, align 8
  ret void
}

; Function Attrs: mustprogress nounwind uwtable
define linkonce_odr hidden noundef nonnull align 8 dereferenceable(16) ptr @_ZN18default_hash_entryI9_key_dataI7svectorIjjEPN7datalog12sparse_table11key_indexerEEE8get_dataEv(ptr noundef nonnull align 8 dereferenceable(24) %this) #5 comdat align 2 {
entry:
  %this.addr = alloca ptr, align 8
  store ptr %this, ptr %this.addr, align 8
  %this1 = load ptr, ptr %this.addr, align 8
  %m_data = getelementptr inbounds %class.default_hash_entry, ptr %this1, i32 0, i32 2
  ret ptr %m_data
}

; Function Attrs: mustprogress uwtable
define linkonce_odr hidden void @_ZN6vectorIjLb0EjE6appendEjPKj(ptr noundef nonnull align 8 dereferenceable(8) %this, i32 noundef %sz, ptr noundef %data) #4 comdat align 2 {
entry:
  %this.addr = alloca ptr, align 8
  %sz.addr = alloca i32, align 4
  %data.addr = alloca ptr, align 8
  %i = alloca i32, align 4
  store ptr %this, ptr %this.addr, align 8
  store i32 %sz, ptr %sz.addr, align 4
  store ptr %data, ptr %data.addr, align 8
  %this1 = load ptr, ptr %this.addr, align 8
  store i32 0, ptr %i, align 4
  br label %for.cond

for.cond:                                         ; preds = %for.inc, %entry
  %0 = load i32, ptr %i, align 4
  %1 = load i32, ptr %sz.addr, align 4
  %cmp = icmp ult i32 %0, %1
  br i1 %cmp, label %for.body, label %for.end

for.body:                                         ; preds = %for.cond
  %2 = load ptr, ptr %data.addr, align 8
  %3 = load i32, ptr %i, align 4
  %idxprom = zext i32 %3 to i64
  %arrayidx = getelementptr inbounds i32, ptr %2, i64 %idxprom
  %call = call noundef nonnull align 8 dereferenceable(8) ptr @_ZN6vectorIjLb0EjE9push_backERKj(ptr noundef nonnull align 8 dereferenceable(8) %this1, ptr noundef nonnull align 4 dereferenceable(4) %arrayidx)
  br label %for.inc

for.inc:                                          ; preds = %for.body
  %4 = load i32, ptr %i, align 4
  %inc = add i32 %4, 1
  store i32 %inc, ptr %i, align 4
  br label %for.cond, !llvm.loop !11

for.end:                                          ; preds = %for.cond
  ret void
}

; Function Attrs: mustprogress nounwind uwtable
define linkonce_odr hidden void @_ZN7svectorIjjEC2Ev(ptr noundef nonnull align 8 dereferenceable(8) %this) unnamed_addr #5 comdat align 2 {
entry:
  %this.addr = alloca ptr, align 8
  store ptr %this, ptr %this.addr, align 8
  %this1 = load ptr, ptr %this.addr, align 8
  %0 = getelementptr inbounds i8, ptr %this1, i64 0
  call void @llvm.memset.p0.i64(ptr align 8 %0, i8 0, i64 8, i1 false)
  call void @_ZN6vectorIjLb0EjEC2Ev(ptr noundef nonnull align 8 dereferenceable(8) %this1) #3
  ret void
}

; Function Attrs: mustprogress uwtable
define hidden noundef nonnull align 8 dereferenceable(16) ptr @_ZNK7datalog12sparse_table15get_key_indexerEjPKj(ptr noundef nonnull align 8 dereferenceable(184) %this, i32 noundef %key_len, ptr noundef %key_cols) #4 align 2 personality ptr @__gxx_personality_v0 {
entry:
  %this.addr = alloca ptr, align 8
  %key_len.addr = alloca i32, align 4
  %key_cols.addr = alloca ptr, align 8
  %_va = alloca %"class.datalog::verbose_action", align 8
  %kspec = alloca %class.svector.10, align 8
  %exn.slot = alloca ptr, align 8
  %ehselector.slot = alloca i32, align 4
  %key_map_entry = alloca ptr, align 8
  %ref.tmp = alloca ptr, align 8
  %indexer = alloca ptr, align 8
  store ptr %this, ptr %this.addr, align 8
  store i32 %key_len, ptr %key_len.addr, align 4
  store ptr %key_cols, ptr %key_cols.addr, align 8
  %this1 = load ptr, ptr %this.addr, align 8
  call void @_ZN7datalog14verbose_actionC1EPKcj(ptr noundef nonnull align 8 dereferenceable(16) %_va, ptr noundef @.str, i32 noundef 11)
  invoke void @_ZN7svectorIjjEC2Ev(ptr noundef nonnull align 8 dereferenceable(8) %kspec)
          to label %invoke.cont unwind label %lpad

invoke.cont:                                      ; preds = %entry
  %0 = load i32, ptr %key_len.addr, align 4
  %1 = load ptr, ptr %key_cols.addr, align 8
  invoke void @_ZN6vectorIjLb0EjE6appendEjPKj(ptr noundef nonnull align 8 dereferenceable(8) %kspec, i32 noundef %0, ptr noundef %1)
          to label %invoke.cont3 unwind label %lpad2

invoke.cont3:                                     ; preds = %invoke.cont
  %m_key_indexes = getelementptr inbounds %"class.datalog::sparse_table", ptr %this1, i32 0, i32 5
  store ptr null, ptr %ref.tmp, align 8
  %call = invoke noundef ptr @_ZN9table2mapI17default_map_entryI7svectorIjjEPN7datalog12sparse_table11key_indexerEENS3_17svector_hash_procI13unsigned_hashEENS3_14vector_eq_procIS2_EEE20insert_if_not_there3ERKS2_RKS6_(ptr noundef nonnull align 8 dereferenceable(24) %m_key_indexes, ptr noundef nonnull align 8 dereferenceable(8) %kspec, ptr noundef nonnull align 8 dereferenceable(8) %ref.tmp)
          to label %invoke.cont4 unwind label %lpad2

invoke.cont4:                                     ; preds = %invoke.cont3
  store ptr %call, ptr %key_map_entry, align 8
  %2 = load ptr, ptr %key_map_entry, align 8
  %call6 = invoke noundef nonnull align 8 dereferenceable(16) ptr @_ZN18default_hash_entryI9_key_dataI7svectorIjjEPN7datalog12sparse_table11key_indexerEEE8get_dataEv(ptr noundef nonnull align 8 dereferenceable(24) %2)
          to label %invoke.cont5 unwind label %lpad2

invoke.cont5:                                     ; preds = %invoke.cont4
  %m_value = getelementptr inbounds %struct._key_data, ptr %call6, i32 0, i32 1
  %3 = load ptr, ptr %m_value, align 8
  %tobool = icmp ne ptr %3, null
  br i1 %tobool, label %if.end22, label %if.then

if.then:                                          ; preds = %invoke.cont5
  %4 = load i32, ptr %key_len.addr, align 4
  %5 = load ptr, ptr %key_cols.addr, align 8
  %call8 = invoke noundef zeroext i1 @_ZN7datalog12sparse_table26full_signature_key_indexer10can_handleEjPKjRKS0_(i32 noundef %4, ptr noundef %5, ptr noundef nonnull align 8 dereferenceable(184) %this1)
          to label %invoke.cont7 unwind label %lpad2

invoke.cont7:                                     ; preds = %if.then
  br i1 %call8, label %if.then9, label %if.else

if.then9:                                         ; preds = %invoke.cont7
  %call11 = invoke noalias noundef ptr @_ZN6memory8allocateEm(i64 noundef 40)
          to label %invoke.cont10 unwind label %lpad2

invoke.cont10:                                    ; preds = %if.then9
  %6 = load i32, ptr %key_len.addr, align 4
  %7 = load ptr, ptr %key_cols.addr, align 8
  invoke void @_ZN7datalog12sparse_table26full_signature_key_indexerC2EjPKjRKS0_(ptr noundef nonnull align 8 dereferenceable(40) %call11, i32 noundef %6, ptr noundef %7, ptr noundef nonnull align 8 dereferenceable(184) %this1)
          to label %invoke.cont12 unwind label %lpad2

invoke.cont12:                                    ; preds = %invoke.cont10
  %8 = load ptr, ptr %key_map_entry, align 8
  %call14 = invoke noundef nonnull align 8 dereferenceable(16) ptr @_ZN18default_hash_entryI9_key_dataI7svectorIjjEPN7datalog12sparse_table11key_indexerEEE8get_dataEv(ptr noundef nonnull align 8 dereferenceable(24) %8)
          to label %invoke.cont13 unwind label %lpad2

invoke.cont13:                                    ; preds = %invoke.cont12
  %m_value15 = getelementptr inbounds %struct._key_data, ptr %call14, i32 0, i32 1
  store ptr %call11, ptr %m_value15, align 8
  br label %if.end

lpad:                                             ; preds = %entry
  %9 = landingpad { ptr, i32 }
          cleanup
  %10 = extractvalue { ptr, i32 } %9, 0
  store ptr %10, ptr %exn.slot, align 8
  %11 = extractvalue { ptr, i32 } %9, 1
  store i32 %11, ptr %ehselector.slot, align 4
  br label %ehcleanup

lpad2:                                            ; preds = %invoke.cont23, %if.end22, %invoke.cont18, %invoke.cont16, %if.else, %invoke.cont12, %invoke.cont10, %if.then9, %if.then, %invoke.cont4, %invoke.cont3, %invoke.cont
  %12 = landingpad { ptr, i32 }
          cleanup
  %13 = extractvalue { ptr, i32 } %12, 0
  store ptr %13, ptr %exn.slot, align 8
  %14 = extractvalue { ptr, i32 } %12, 1
  store i32 %14, ptr %ehselector.slot, align 4
  call void @_ZN7svectorIjjED2Ev(ptr noundef nonnull align 8 dereferenceable(8) %kspec) #3
  br label %ehcleanup

if.else:                                          ; preds = %invoke.cont7
  %call17 = invoke noalias noundef ptr @_ZN6memory8allocateEm(i64 noundef 136)
          to label %invoke.cont16 unwind label %lpad2

invoke.cont16:                                    ; preds = %if.else
  %15 = load i32, ptr %key_len.addr, align 4
  %16 = load ptr, ptr %key_cols.addr, align 8
  invoke void @_ZN7datalog12sparse_table19general_key_indexerC2EjPKj(ptr noundef nonnull align 8 dereferenceable(136) %call17, i32 noundef %15, ptr noundef %16)
          to label %invoke.cont18 unwind label %lpad2

invoke.cont18:                                    ; preds = %invoke.cont16
  %17 = load ptr, ptr %key_map_entry, align 8
  %call20 = invoke noundef nonnull align 8 dereferenceable(16) ptr @_ZN18default_hash_entryI9_key_dataI7svectorIjjEPN7datalog12sparse_table11key_indexerEEE8get_dataEv(ptr noundef nonnull align 8 dereferenceable(24) %17)
          to label %invoke.cont19 unwind label %lpad2

invoke.cont19:                                    ; preds = %invoke.cont18
  %m_value21 = getelementptr inbounds %struct._key_data, ptr %call20, i32 0, i32 1
  store ptr %call17, ptr %m_value21, align 8
  br label %if.end

if.end:                                           ; preds = %invoke.cont19, %invoke.cont13
  br label %if.end22

if.end22:                                         ; preds = %if.end, %invoke.cont5
  %18 = load ptr, ptr %key_map_entry, align 8
  %call24 = invoke noundef nonnull align 8 dereferenceable(16) ptr @_ZN18default_hash_entryI9_key_dataI7svectorIjjEPN7datalog12sparse_table11key_indexerEEE8get_dataEv(ptr noundef nonnull align 8 dereferenceable(24) %18)
          to label %invoke.cont23 unwind label %lpad2

invoke.cont23:                                    ; preds = %if.end22
  %m_value25 = getelementptr inbounds %struct._key_data, ptr %call24, i32 0, i32 1
  %19 = load ptr, ptr %m_value25, align 8
  store ptr %19, ptr %indexer, align 8
  %20 = load ptr, ptr %indexer, align 8
  %vtable = load ptr, ptr %20, align 8
  %vfn = getelementptr inbounds ptr, ptr %vtable, i64 2
  %21 = load ptr, ptr %vfn, align 8
  invoke void %21(ptr noundef nonnull align 8 dereferenceable(16) %20, ptr noundef nonnull align 8 dereferenceable(184) %this1)
          to label %invoke.cont26 unwind label %lpad2

invoke.cont26:                                    ; preds = %invoke.cont23
  %22 = load ptr, ptr %indexer, align 8
  call void @_ZN7svectorIjjED2Ev(ptr noundef nonnull align 8 dereferenceable(8) %kspec) #3
  call void @_ZN7datalog14verbose_actionD1Ev(ptr noundef nonnull align 8 dereferenceable(16) %_va) #3
  ret ptr %22

ehcleanup:                                        ; preds = %lpad2, %lpad
  call void @_ZN7datalog14verbose_actionD1Ev(ptr noundef nonnull align 8 dereferenceable(16) %_va) #3
  br label %eh.resume

eh.resume:                                        ; preds = %ehcleanup
  %exn = load ptr, ptr %exn.slot, align 8
  %sel = load i32, ptr %ehselector.slot, align 4
  %lpad.val = insertvalue { ptr, i32 } poison, ptr %exn, 0
  %lpad.val27 = insertvalue { ptr, i32 } %lpad.val, i32 %sel, 1
  resume { ptr, i32 } %lpad.val27
}