; Function Attrs: mustprogress uwtable
define hidden noundef nonnull align 8 dereferenceable(16) ptr @_ZNK7datalog12sparse_table15get_key_indexerEjPKj(ptr noundef nonnull align 8 dereferenceable(184) %this, i32 noundef %key_len, ptr noundef %key_cols) local_unnamed_addr #3 align 2 personality ptr @__gxx_personality_v0 {
entry:
  %_va = alloca %"class.datalog::verbose_action", align 8
  %kspec = alloca %class.svector.10, align 8
  %ref.tmp = alloca ptr, align 8
  call void @_ZN7datalog14verbose_actionC1EPKcj(ptr noundef nonnull align 8 dereferenceable(16) %_va, ptr noundef nonnull @.str, i32 noundef 11)
  store ptr null, ptr %kspec, align 8
  %cmp3.not.i = icmp eq i32 %key_len, 0
  br i1 %cmp3.not.i, label %invoke.cont3, label %for.body.preheader.i

for.body.preheader.i:                             ; preds = %entry
  %wide.trip.count.i = zext i32 %key_len to i64
  br label %for.body.i

for.body.ithread-pre-split:                       ; preds = %_ZN6vectorIjLb0EjE9push_backERKj.exit.i
  %.pr = load ptr, ptr %kspec, align 8
  br label %for.body.i

for.body.i:                                       ; preds = %for.body.ithread-pre-split, %for.body.preheader.i
  %0 = phi ptr [ %.pr, %for.body.ithread-pre-split ], [ null, %for.body.preheader.i ]
  %indvars.iv.i = phi i64 [ %indvars.iv.next.i, %for.body.ithread-pre-split ], [ 0, %for.body.preheader.i ]
  %arrayidx.i = getelementptr inbounds i32, ptr %key_cols, i64 %indvars.iv.i
  %cmp.i.i = icmp eq ptr %0, null
  br i1 %cmp.i.i, label %if.then.i.i, label %lor.lhs.false.i.i

lor.lhs.false.i.i:                                ; preds = %for.body.i
  %arrayidx.i.i = getelementptr inbounds i8, ptr %0, i64 -4
  %1 = load i32, ptr %arrayidx.i.i, align 4
  %arrayidx4.i.i = getelementptr inbounds i8, ptr %0, i64 -8
  %2 = load i32, ptr %arrayidx4.i.i, align 4
  %cmp5.i.i = icmp eq i32 %1, %2
  br i1 %cmp5.i.i, label %if.then.i.i, label %_ZN6vectorIjLb0EjE9push_backERKj.exit.i

if.then.i.i:                                      ; preds = %lor.lhs.false.i.i, %for.body.i
  invoke void @_ZN6vectorIjLb0EjE13expand_vectorEv(ptr noundef nonnull align 8 dereferenceable(8) %kspec)
          to label %.noexc unwind label %lpad2.loopexit

.noexc:                                           ; preds = %if.then.i.i
  %.pre.i.i = load ptr, ptr %kspec, align 8
  %arrayidx8.phi.trans.insert.i.i = getelementptr inbounds i8, ptr %.pre.i.i, i64 -4
  %.pre1.i.i = load i32, ptr %arrayidx8.phi.trans.insert.i.i, align 4
  br label %_ZN6vectorIjLb0EjE9push_backERKj.exit.i

_ZN6vectorIjLb0EjE9push_backERKj.exit.i:          ; preds = %.noexc, %lor.lhs.false.i.i
  %3 = phi i32 [ %.pre1.i.i, %.noexc ], [ %1, %lor.lhs.false.i.i ]
  %4 = phi ptr [ %.pre.i.i, %.noexc ], [ %0, %lor.lhs.false.i.i ]
  %idx.ext.i.i = zext i32 %3 to i64
  %add.ptr.i.i = getelementptr inbounds i32, ptr %4, i64 %idx.ext.i.i
  %5 = load i32, ptr %arrayidx.i, align 4
  store i32 %5, ptr %add.ptr.i.i, align 4
  %6 = load ptr, ptr %kspec, align 8
  %arrayidx10.i.i = getelementptr inbounds i8, ptr %6, i64 -4
  %7 = load i32, ptr %arrayidx10.i.i, align 4
  %inc.i.i = add i32 %7, 1
  store i32 %inc.i.i, ptr %arrayidx10.i.i, align 4
  %indvars.iv.next.i = add nuw nsw i64 %indvars.iv.i, 1
  %exitcond.not.i = icmp eq i64 %indvars.iv.next.i, %wide.trip.count.i
  br i1 %exitcond.not.i, label %invoke.cont3, label %for.body.ithread-pre-split, !llvm.loop !24

invoke.cont3:                                     ; preds = %_ZN6vectorIjLb0EjE9push_backERKj.exit.i, %entry
  %m_key_indexes = getelementptr inbounds i8, ptr %this, i64 160
  store ptr null, ptr %ref.tmp, align 8
  %call = invoke noundef ptr @_ZN9table2mapI17default_map_entryI7svectorIjjEPN7datalog12sparse_table11key_indexerEENS3_17svector_hash_procI13unsigned_hashEENS3_14vector_eq_procIS2_EEE20insert_if_not_there3ERKS2_RKS6_(ptr noundef nonnull align 8 dereferenceable(24) %m_key_indexes, ptr noundef nonnull align 8 dereferenceable(8) %kspec, ptr noundef nonnull align 8 dereferenceable(8) %ref.tmp)
          to label %invoke.cont4 unwind label %lpad2.loopexit.split-lp

invoke.cont4:                                     ; preds = %invoke.cont3
  %m_value = getelementptr inbounds i8, ptr %call, i64 16
  %8 = load ptr, ptr %m_value, align 8
  %tobool.not = icmp eq ptr %8, null
  br i1 %tobool.not, label %if.then, label %if.end22

if.then:                                          ; preds = %invoke.cont4
  %call8 = invoke noundef zeroext i1 @_ZN7datalog12sparse_table26full_signature_key_indexer10can_handleEjPKjRKS0_(i32 noundef %key_len, ptr noundef %key_cols, ptr noundef nonnull align 8 dereferenceable(184) %this)
          to label %invoke.cont7 unwind label %lpad2.loopexit.split-lp

invoke.cont7:                                     ; preds = %if.then
  br i1 %call8, label %if.then9, label %if.else

if.then9:                                         ; preds = %invoke.cont7
  %call11 = invoke noalias noundef ptr @_ZN6memory8allocateEm(i64 noundef 40)
          to label %invoke.cont10 unwind label %lpad2.loopexit.split-lp

invoke.cont10:                                    ; preds = %if.then9
  invoke void @_ZN7datalog12sparse_table26full_signature_key_indexerC2EjPKjRKS0_(ptr noundef nonnull align 8 dereferenceable(40) %call11, i32 noundef %key_len, ptr noundef %key_cols, ptr noundef nonnull align 8 dereferenceable(184) %this)
          to label %if.end22.sink.split unwind label %lpad2.loopexit.split-lp

lpad2.loopexit:                                   ; preds = %if.then.i.i
  %lpad.loopexit = landingpad { ptr, i32 }
          cleanup
  br label %lpad2

lpad2.loopexit.split-lp:                          ; preds = %invoke.cont3, %if.then, %if.then9, %invoke.cont10, %if.else, %invoke.cont16, %if.end22
  %lpad.loopexit.split-lp = landingpad { ptr, i32 }
          cleanup
  br label %lpad2

lpad2:                                            ; preds = %lpad2.loopexit.split-lp, %lpad2.loopexit
  %lpad.phi = phi { ptr, i32 } [ %lpad.loopexit, %lpad2.loopexit ], [ %lpad.loopexit.split-lp, %lpad2.loopexit.split-lp ]
  call void @_ZN7svectorIjjED2Ev(ptr noundef nonnull align 8 dereferenceable(8) %kspec) #25
  call void @_ZN7datalog14verbose_actionD1Ev(ptr noundef nonnull align 8 dereferenceable(16) %_va) #25
  resume { ptr, i32 } %lpad.phi

if.else:                                          ; preds = %invoke.cont7
  %call17 = invoke noalias noundef ptr @_ZN6memory8allocateEm(i64 noundef 136)
          to label %invoke.cont16 unwind label %lpad2.loopexit.split-lp

invoke.cont16:                                    ; preds = %if.else
  invoke void @_ZN7datalog12sparse_table19general_key_indexerC2EjPKj(ptr noundef nonnull align 8 dereferenceable(136) %call17, i32 noundef %key_len, ptr noundef %key_cols)
          to label %if.end22.sink.split unwind label %lpad2.loopexit.split-lp

if.end22.sink.split:                              ; preds = %invoke.cont16, %invoke.cont10
  %call11.sink = phi ptr [ %call11, %invoke.cont10 ], [ %call17, %invoke.cont16 ]
  store ptr %call11.sink, ptr %m_value, align 8
  br label %if.end22

if.end22:                                         ; preds = %if.end22.sink.split, %invoke.cont4
  %9 = phi ptr [ %8, %invoke.cont4 ], [ %call11.sink, %if.end22.sink.split ]
  %vtable = load ptr, ptr %9, align 8
  %vfn = getelementptr inbounds i8, ptr %vtable, i64 16
  %10 = load ptr, ptr %vfn, align 8
  invoke void %10(ptr noundef nonnull align 8 dereferenceable(16) %9, ptr noundef nonnull align 8 dereferenceable(184) %this)
          to label %invoke.cont26 unwind label %lpad2.loopexit.split-lp

invoke.cont26:                                    ; preds = %if.end22
  %11 = load ptr, ptr %kspec, align 8
  %tobool.not.i.i.i = icmp eq ptr %11, null
  br i1 %tobool.not.i.i.i, label %_ZN7svectorIjjED2Ev.exit, label %if.then.i.i.i

if.then.i.i.i:                                    ; preds = %invoke.cont26
  %add.ptr.i.i.i.i = getelementptr inbounds i8, ptr %11, i64 -8
  invoke void @_ZN6memory10deallocateEPv(ptr noundef nonnull %add.ptr.i.i.i.i)
          to label %_ZN7svectorIjjED2Ev.exit unwind label %terminate.lpad.i.i

terminate.lpad.i.i:                               ; preds = %if.then.i.i.i
  %12 = landingpad { ptr, i32 }
          catch ptr null
  %13 = extractvalue { ptr, i32 } %12, 0
  call void @__clang_call_terminate(ptr %13) #27
  unreachable

_ZN7svectorIjjED2Ev.exit:                         ; preds = %invoke.cont26, %if.then.i.i.i
  call void @_ZN7datalog14verbose_actionD1Ev(ptr noundef nonnull align 8 dereferenceable(16) %_va) #25
  ret ptr %9
}